; ModuleID = '10/1046.c'
source_filename = "10/1046.c"
target datalayout = "e-m:e-p270:32:32-p271:32:32-p272:64:64-i64:64-f80:128-n8:16:32:64-S128"
target triple = "x86_64-pc-linux-gnu"

@.str = private unnamed_addr constant [3 x i8] c"%d\00", align 1

; Function Attrs: noinline nounwind uwtable
define dso_local i32 @main() #0 {
  %1 = alloca i32, align 4
  %2 = alloca i32, align 4
  %3 = alloca i32, align 4
  %4 = alloca i32, align 4
  %5 = alloca i32, align 4
  %6 = alloca i32, align 4
  %7 = alloca i32*, align 8
  %8 = alloca i32**, align 8
  store i32 0, i32* %1, align 4
  store i32 9999, i32* %6, align 4
  %9 = call i32 (i8*, ...) @__isoc99_scanf(i8* getelementptr inbounds ([3 x i8], [3 x i8]* @.str, i64 0, i64 0), i32* %5)
  %10 = load i32, i32* %5, align 4
  %11 = sext i32 %10 to i64
  %12 = mul i64 %11, 4
  %13 = call noalias i8* @malloc(i64 %12) #3
  %14 = bitcast i8* %13 to i32*
  store i32* %14, i32** %7, align 8
  %15 = load i32, i32* %5, align 4
  %16 = sext i32 %15 to i64
  %17 = mul i64 %16, 8
  %18 = call noalias i8* @malloc(i64 %17) #3
  %19 = bitcast i8* %18 to i32**
  store i32** %19, i32*** %8, align 8
  store i32 0, i32* %2, align 4
  br label %20

20:                                               ; preds = %32, %0
  %21 = load i32, i32* %2, align 4
  %22 = load i32, i32* %5, align 4
  %23 = sub nsw i32 %22, 1
  %24 = icmp sle i32 %21, %23
  br i1 %24, label %25, label %35

25:                                               ; preds = %20
  %26 = call noalias i8* @malloc(i64 39996) #3
  %27 = bitcast i8* %26 to i32*
  %28 = load i32**, i32*** %8, align 8
  %29 = load i32, i32* %2, align 4
  %30 = sext i32 %29 to i64
  %31 = getelementptr inbounds i32*, i32** %28, i64 %30
  store i32* %27, i32** %31, align 8
  br label %32

32:                                               ; preds = %25
  %33 = load i32, i32* %2, align 4
  %34 = add nsw i32 %33, 1
  store i32 %34, i32* %2, align 4
  br label %20

35:                                               ; preds = %20
  store i32 0, i32* %2, align 4
  br label %36

36:                                               ; preds = %47, %35
  %37 = load i32, i32* %2, align 4
  %38 = load i32, i32* %5, align 4
  %39 = sub nsw i32 %38, 1
  %40 = icmp sle i32 %37, %39
  br i1 %40, label %41, label %50

41:                                               ; preds = %36
  %42 = load i32*, i32** %7, align 8
  %43 = load i32, i32* %2, align 4
  %44 = sext i32 %43 to i64
  %45 = getelementptr inbounds i32, i32* %42, i64 %44
  %46 = call i32 (i8*, ...) @__isoc99_scanf(i8* getelementptr inbounds ([3 x i8], [3 x i8]* @.str, i64 0, i64 0), i32* %45)
  br label %47

47:                                               ; preds = %41
  %48 = load i32, i32* %2, align 4
  %49 = add nsw i32 %48, 1
  store i32 %49, i32* %2, align 4
  br label %36

50:                                               ; preds = %36
  store i32 0, i32* %2, align 4
  br label %51

51:                                               ; preds = %92, %50
  %52 = load i32, i32* %2, align 4
  %53 = load i32, i32* %5, align 4
  %54 = sub nsw i32 %53, 2
  %55 = icmp sle i32 %52, %54
  br i1 %55, label %56, label %95

56:                                               ; preds = %51
  %57 = load i32*, i32** %7, align 8
  %58 = load i32, i32* %2, align 4
  %59 = sext i32 %58 to i64
  %60 = getelementptr inbounds i32, i32* %57, i64 %59
  %61 = load i32, i32* %60, align 4
  %62 = load i32*, i32** %7, align 8
  %63 = load i32, i32* %2, align 4
  %64 = add nsw i32 %63, 1
  %65 = sext i32 %64 to i64
  %66 = getelementptr inbounds i32, i32* %62, i64 %65
  %67 = load i32, i32* %66, align 4
  %68 = icmp sgt i32 %61, %67
  br i1 %68, label %69, label %91

69:                                               ; preds = %56
  %70 = load i32*, i32** %7, align 8
  %71 = load i32, i32* %2, align 4
  %72 = sext i32 %71 to i64
  %73 = getelementptr inbounds i32, i32* %70, i64 %72
  %74 = load i32, i32* %73, align 4
  store i32 %74, i32* %4, align 4
  %75 = load i32*, i32** %7, align 8
  %76 = load i32, i32* %2, align 4
  %77 = add nsw i32 %76, 1
  %78 = sext i32 %77 to i64
  %79 = getelementptr inbounds i32, i32* %75, i64 %78
  %80 = load i32, i32* %79, align 4
  %81 = load i32*, i32** %7, align 8
  %82 = load i32, i32* %2, align 4
  %83 = sext i32 %82 to i64
  %84 = getelementptr inbounds i32, i32* %81, i64 %83
  store i32 %80, i32* %84, align 4
  %85 = load i32, i32* %4, align 4
  %86 = load i32*, i32** %7, align 8
  %87 = load i32, i32* %2, align 4
  %88 = add nsw i32 %87, 1
  %89 = sext i32 %88 to i64
  %90 = getelementptr inbounds i32, i32* %86, i64 %89
  store i32 %85, i32* %90, align 4
  br label %91

91:                                               ; preds = %69, %56
  br label %92

92:                                               ; preds = %91
  %93 = load i32, i32* %2, align 4
  %94 = add nsw i32 %93, 1
  store i32 %94, i32* %2, align 4
  br label %51

95:                                               ; preds = %51
  %96 = load i32*, i32** %7, align 8
  %97 = load i32, i32* %5, align 4
  %98 = sub nsw i32 %97, 1
  %99 = sext i32 %98 to i64
  %100 = getelementptr inbounds i32, i32* %96, i64 %99
  %101 = load i32, i32* %100, align 4
  store i32 %101, i32* %6, align 4
  %102 = load i32, i32* %5, align 4
  %103 = sub nsw i32 %102, 1
  store i32 %103, i32* %2, align 4
  br label %104

104:                                              ; preds = %248, %95
  %105 = load i32, i32* %2, align 4
  %106 = icmp sge i32 %105, 0
  br i1 %106, label %107, label %251

107:                                              ; preds = %104
  store i32 0, i32* %3, align 4
  br label %108

108:                                              ; preds = %244, %107
  %109 = load i32, i32* %3, align 4
  %110 = load i32, i32* %6, align 4
  %111 = icmp sle i32 %109, %110
  br i1 %111, label %112, label %247

112:                                              ; preds = %108
  %113 = load i32, i32* %2, align 4
  %114 = load i32, i32* %5, align 4
  %115 = sub nsw i32 %114, 1
  %116 = icmp eq i32 %113, %115
  br i1 %116, label %117, label %144

117:                                              ; preds = %112
  %118 = load i32, i32* %3, align 4
  %119 = load i32*, i32** %7, align 8
  %120 = load i32, i32* %2, align 4
  %121 = sext i32 %120 to i64
  %122 = getelementptr inbounds i32, i32* %119, i64 %121
  %123 = load i32, i32* %122, align 4
  %124 = icmp sge i32 %118, %123
  br i1 %124, label %125, label %134

125:                                              ; preds = %117
  %126 = load i32**, i32*** %8, align 8
  %127 = load i32, i32* %2, align 4
  %128 = sext i32 %127 to i64
  %129 = getelementptr inbounds i32*, i32** %126, i64 %128
  %130 = load i32*, i32** %129, align 8
  %131 = load i32, i32* %3, align 4
  %132 = sext i32 %131 to i64
  %133 = getelementptr inbounds i32, i32* %130, i64 %132
  store i32 1, i32* %133, align 4
  br label %143

134:                                              ; preds = %117
  %135 = load i32**, i32*** %8, align 8
  %136 = load i32, i32* %2, align 4
  %137 = sext i32 %136 to i64
  %138 = getelementptr inbounds i32*, i32** %135, i64 %137
  %139 = load i32*, i32** %138, align 8
  %140 = load i32, i32* %3, align 4
  %141 = sext i32 %140 to i64
  %142 = getelementptr inbounds i32, i32* %139, i64 %141
  store i32 0, i32* %142, align 4
  br label %143

143:                                              ; preds = %134, %125
  br label %243

144:                                              ; preds = %112
  %145 = load i32, i32* %3, align 4
  %146 = load i32*, i32** %7, align 8
  %147 = load i32, i32* %2, align 4
  %148 = sext i32 %147 to i64
  %149 = getelementptr inbounds i32, i32* %146, i64 %148
  %150 = load i32, i32* %149, align 4
  %151 = icmp sge i32 %145, %150
  br i1 %151, label %152, label %223

152:                                              ; preds = %144
  %153 = load i32**, i32*** %8, align 8
  %154 = load i32, i32* %2, align 4
  %155 = add nsw i32 %154, 1
  %156 = sext i32 %155 to i64
  %157 = getelementptr inbounds i32*, i32** %153, i64 %156
  %158 = load i32*, i32** %157, align 8
  %159 = load i32*, i32** %7, align 8
  %160 = load i32, i32* %2, align 4
  %161 = sext i32 %160 to i64
  %162 = getelementptr inbounds i32, i32* %159, i64 %161
  %163 = load i32, i32* %162, align 4
  %164 = sext i32 %163 to i64
  %165 = getelementptr inbounds i32, i32* %158, i64 %164
  %166 = load i32, i32* %165, align 4
  %167 = add nsw i32 1, %166
  %168 = load i32**, i32*** %8, align 8
  %169 = load i32, i32* %2, align 4
  %170 = add nsw i32 %169, 1
  %171 = sext i32 %170 to i64
  %172 = getelementptr inbounds i32*, i32** %168, i64 %171
  %173 = load i32*, i32** %172, align 8
  %174 = load i32, i32* %3, align 4
  %175 = sext i32 %174 to i64
  %176 = getelementptr inbounds i32, i32* %173, i64 %175
  %177 = load i32, i32* %176, align 4
  %178 = icmp sgt i32 %167, %177
  br i1 %178, label %179, label %203

179:                                              ; preds = %152
  %180 = load i32**, i32*** %8, align 8
  %181 = load i32, i32* %2, align 4
  %182 = add nsw i32 %181, 1
  %183 = sext i32 %182 to i64
  %184 = getelementptr inbounds i32*, i32** %180, i64 %183
  %185 = load i32*, i32** %184, align 8
  %186 = load i32*, i32** %7, align 8
  %187 = load i32, i32* %2, align 4
  %188 = sext i32 %187 to i64
  %189 = getelementptr inbounds i32, i32* %186, i64 %188
  %190 = load i32, i32* %189, align 4
  %191 = sext i32 %190 to i64
  %192 = getelementptr inbounds i32, i32* %185, i64 %191
  %193 = load i32, i32* %192, align 4
  %194 = add nsw i32 1, %193
  %195 = load i32**, i32*** %8, align 8
  %196 = load i32, i32* %2, align 4
  %197 = sext i32 %196 to i64
  %198 = getelementptr inbounds i32*, i32** %195, i64 %197
  %199 = load i32*, i32** %198, align 8
  %200 = load i32, i32* %3, align 4
  %201 = sext i32 %200 to i64
  %202 = getelementptr inbounds i32, i32* %199, i64 %201
  store i32 %194, i32* %202, align 4
  br label %222

203:                                              ; preds = %152
  %204 = load i32**, i32*** %8, align 8
  %205 = load i32, i32* %2, align 4
  %206 = add nsw i32 %205, 1
  %207 = sext i32 %206 to i64
  %208 = getelementptr inbounds i32*, i32** %204, i64 %207
  %209 = load i32*, i32** %208, align 8
  %210 = load i32, i32* %3, align 4
  %211 = sext i32 %210 to i64
  %212 = getelementptr inbounds i32, i32* %209, i64 %211
  %213 = load i32, i32* %212, align 4
  %214 = load i32**, i32*** %8, align 8
  %215 = load i32, i32* %2, align 4
  %216 = sext i32 %215 to i64
  %217 = getelementptr inbounds i32*, i32** %214, i64 %216
  %218 = load i32*, i32** %217, align 8
  %219 = load i32, i32* %3, align 4
  %220 = sext i32 %219 to i64
  %221 = getelementptr inbounds i32, i32* %218, i64 %220
  store i32 %213, i32* %221, align 4
  br label %222

222:                                              ; preds = %203, %179
  br label %242

223:                                              ; preds = %144
  %224 = load i32**, i32*** %8, align 8
  %225 = load i32, i32* %2, align 4
  %226 = add nsw i32 %225, 1
  %227 = sext i32 %226 to i64
  %228 = getelementptr inbounds i32*, i32** %224, i64 %227
  %229 = load i32*, i32** %228, align 8
  %230 = load i32, i32* %3, align 4
  %231 = sext i32 %230 to i64
  %232 = getelementptr inbounds i32, i32* %229, i64 %231
  %233 = load i32, i32* %232, align 4
  %234 = load i32**, i32*** %8, align 8
  %235 = load i32, i32* %2, align 4
  %236 = sext i32 %235 to i64
  %237 = getelementptr inbounds i32*, i32** %234, i64 %236
  %238 = load i32*, i32** %237, align 8
  %239 = load i32, i32* %3, align 4
  %240 = sext i32 %239 to i64
  %241 = getelementptr inbounds i32, i32* %238, i64 %240
  store i32 %233, i32* %241, align 4
  br label %242

242:                                              ; preds = %223, %222
  br label %243

243:                                              ; preds = %242, %143
  br label %244

244:                                              ; preds = %243
  %245 = load i32, i32* %3, align 4
  %246 = add nsw i32 %245, 1
  store i32 %246, i32* %3, align 4
  br label %108

247:                                              ; preds = %108
  br label %248

248:                                              ; preds = %247
  %249 = load i32, i32* %2, align 4
  %250 = add nsw i32 %249, -1
  store i32 %250, i32* %2, align 4
  br label %104

251:                                              ; preds = %104
  %252 = load i32**, i32*** %8, align 8
  %253 = getelementptr inbounds i32*, i32** %252, i64 0
  %254 = load i32*, i32** %253, align 8
  %255 = load i32, i32* %6, align 4
  %256 = sext i32 %255 to i64
  %257 = getelementptr inbounds i32, i32* %254, i64 %256
  %258 = load i32, i32* %257, align 4
  %259 = add nsw i32 %258, 1
  %260 = call i32 (i8*, ...) @printf(i8* getelementptr inbounds ([3 x i8], [3 x i8]* @.str, i64 0, i64 0), i32 %259)
  %261 = load i32, i32* %1, align 4
  ret i32 %261
}

declare dso_local i32 @__isoc99_scanf(i8*, ...) #1

; Function Attrs: nounwind
declare dso_local noalias i8* @malloc(i64) #2

declare dso_local i32 @printf(i8*, ...) #1


!llvm.module.flags = !{!0}
!llvm.ident = !{!1}

!0 = !{i32 1, !"wchar_size", i32 4}
!1 = !{!"clang version 10.0.0-4ubuntu1 "}
